; Function Attrs: nounwind sspstrong uwtable
define internal noundef i64 @rb_deflate_set_dictionary(i64 noundef %0, i64 noundef returned %1) #0 {
  %3 = alloca i64, align 8
  %4 = tail call ptr @rb_check_typeddata(i64 noundef %0, ptr noundef nonnull @zstream_data_type) #18
  %5 = load i64, ptr %4, align 8, !tbaa !42
  %6 = and i64 %5, 1
  %.not.i = icmp eq i64 %6, 0
  br i1 %.not.i, label %7, label %get_zstream.exit

7:                                                ; preds = %2
  %8 = load i64, ptr @cZError, align 8, !tbaa !6
  tail call void (i64, ptr, ...) @rb_raise(i64 noundef %8, ptr noundef nonnull @.str.150) #19
  unreachable

get_zstream.exit:                                 ; preds = %2
  call void @llvm.lifetime.start.p0(i64 8, ptr nonnull %3) #18
  store i64 %1, ptr %3, align 8, !tbaa !6
  %9 = call i64 @rb_string_value(ptr noundef nonnull %3) #18
  %10 = getelementptr inbounds nuw i8, ptr %4, i64 32
  %11 = load i64, ptr %3, align 8, !tbaa !6
  %12 = inttoptr i64 %11 to ptr
  %13 = load i64, ptr %12, align 8, !tbaa !16, !noalias !85
  %14 = and i64 %13, 8192
  %.not.i.i = icmp eq i64 %14, 0
  %15 = getelementptr inbounds nuw i8, ptr %12, i64 24
  br i1 %.not.i.i, label %RSTRING_PTR.exit, label %16

16:                                               ; preds = %get_zstream.exit
  %.sroa.2.0.copyload.i = load ptr, ptr %15, align 8
  br label %RSTRING_PTR.exit

RSTRING_PTR.exit:                                 ; preds = %get_zstream.exit, %16
  %.sroa.2.0.i = phi ptr [ %.sroa.2.0.copyload.i, %16 ], [ %15, %get_zstream.exit ]
  %17 = getelementptr inbounds nuw i8, ptr %12, i64 16
  %18 = load i64, ptr %17, align 8, !tbaa !21
  %19 = add i64 %18, 2147483648
  %.not.i.i6 = icmp ult i64 %19, 4294967296
  br i1 %.not.i.i6, label %RSTRING_LENINT.exit, label %20

20:                                               ; preds = %RSTRING_PTR.exit
  call void @rb_out_of_int(i64 noundef %18) #21
  unreachable

RSTRING_LENINT.exit:                              ; preds = %RSTRING_PTR.exit
  %21 = trunc i64 %18 to i32
  %22 = call i32 @deflateSetDictionary(ptr noundef nonnull %10, ptr noundef %.sroa.2.0.i, i32 noundef %21) #18
  %.not = icmp eq i32 %22, 0
  br i1 %.not, label %26, label %23

23:                                               ; preds = %RSTRING_LENINT.exit
  %24 = getelementptr inbounds nuw i8, ptr %4, i64 80
  %25 = load ptr, ptr %24, align 8, !tbaa !59
  call fastcc void @raise_zlib_error(i32 noundef %22, ptr noundef %25) #20
  unreachable

26:                                               ; preds = %RSTRING_LENINT.exit
  call void @llvm.lifetime.end.p0(i64 8, ptr nonnull %3) #18
  ret i64 %1
}